; Function Attrs: nounwind uwtable
define i32 @ENGINE_set_default_pkey_asn1_meths(ptr noundef %0) local_unnamed_addr #0 {
  %2 = alloca ptr, align 8
  %3 = getelementptr inbounds nuw i8, ptr %0, i64 80
  %4 = load ptr, ptr %3, align 8, !tbaa !3
  %.not = icmp eq ptr %4, null
  br i1 %.not, label %11, label %5

5:                                                ; preds = %1
  call void @llvm.lifetime.start.p0(i64 8, ptr nonnull %2) #7
  %6 = call i32 %4(ptr noundef nonnull %0, ptr noundef null, ptr noundef nonnull %2, i32 noundef 0) #7
  %7 = icmp sgt i32 %6, 0
  br i1 %7, label %8, label %.sink.split

8:                                                ; preds = %5
  %9 = load ptr, ptr %2, align 8, !tbaa !21
  %10 = call i32 @engine_table_register(ptr noundef nonnull @pkey_asn1_meth_table, ptr noundef nonnull @engine_unregister_all_pkey_asn1_meths, ptr noundef nonnull %0, ptr noundef %9, i32 noundef %6, i32 noundef 1) #7
  br label %.sink.split

.sink.split:                                      ; preds = %5, %8
  %.1.ph = phi i32 [ %10, %8 ], [ 1, %5 ]
  call void @llvm.lifetime.end.p0(i64 8, ptr nonnull %2) #7
  br label %11

11:                                               ; preds = %.sink.split, %1
  %.1 = phi i32 [ 1, %1 ], [ %.1.ph, %.sink.split ]
  ret i32 %.1
}